target datalayout = "e-m:e-p270:32:32-p271:32:32-p272:64:64-i64:64-i128:128-f80:128-n8:16:32:64-S128"
target triple = "x86_64-unknown-linux-gnu"

%"class.boost::detail::shared_count" = type { ptr }
%class.anon.29 = type { ptr }
%"class.QuantLib::FdmVPPStepCondition" = type { %"class.QuantLib::StepCondition", double, double, double, i64, i64, double, double, double, i64, i64, %"class.boost::shared_ptr.19", %"class.boost::shared_ptr.18", %"class.boost::shared_ptr.18", %"class.std::vector" }
%"class.QuantLib::StepCondition" = type { ptr }
%"class.boost::shared_ptr.19" = type { ptr, %"class.boost::detail::shared_count" }
%"class.boost::shared_ptr.18" = type { ptr, %"class.boost::detail::shared_count" }
%"class.std::vector" = type { %"struct.std::_Vector_base" }
%"struct.std::_Vector_base" = type { %"struct.std::_Vector_base<std::function<double (double)>, std::allocator<std::function<double (double)>>>::_Vector_impl" }
%"struct.std::_Vector_base<std::function<double (double)>, std::allocator<std::function<double (double)>>>::_Vector_impl" = type { %"struct.std::_Vector_base<std::function<double (double)>, std::allocator<std::function<double (double)>>>::_Vector_impl_data" }
%"struct.std::_Vector_base<std::function<double (double)>, std::allocator<std::function<double (double)>>>::_Vector_impl_data" = type { ptr, ptr, ptr }

; Function Attrs: mustprogress nounwind uwtable
define noundef double @_ZNK8QuantLib19FdmVPPStepCondition12evolveAtPMaxEd(ptr noundef nonnull align 8 dereferenceable(160) %this, double noundef %sparkSpread) #5 align 2 {
entry:
  %this.addr = alloca ptr, align 8
  %sparkSpread.addr = alloca double, align 8
  store ptr %this, ptr %this.addr, align 8, !tbaa !3
  store double %sparkSpread, ptr %sparkSpread.addr, align 8, !tbaa !56
  %this1 = load ptr, ptr %this.addr, align 8
  %pMax_ = getelementptr inbounds nuw %"class.QuantLib::FdmVPPStepCondition", ptr %this1, i32 0, i32 3
  %0 = load double, ptr %pMax_, align 8, !tbaa !27
  %1 = load double, ptr %sparkSpread.addr, align 8, !tbaa !56
  %heatRate_ = getelementptr inbounds nuw %"class.QuantLib::FdmVPPStepCondition", ptr %this1, i32 0, i32 1
  %2 = load double, ptr %heatRate_, align 8, !tbaa !14
  %fuelCostAddon_ = getelementptr inbounds nuw %"class.QuantLib::FdmVPPStepCondition", ptr %this1, i32 0, i32 8
  %3 = load double, ptr %fuelCostAddon_, align 8, !tbaa !37
  %neg = fneg double %2
  %4 = call double @llvm.fmuladd.f64(double %neg, double %3, double %1)
  %mul = fmul double %0, %4
  ret double %mul
}

; Function Attrs: inlinehint mustprogress nounwind uwtable
define internal noundef double @"_ZZN8QuantLib19FdmVPPStepConditionC1ERKNS_25FdmVPPStepConditionParamsEmRKNS_25FdmVPPStepConditionMesherEN5boost10shared_ptrINS_23FdmInnerValueCalculatorEEESA_ENK3$_1clEd"(ptr noundef nonnull align 8 dereferenceable(8) %this, double noundef %x) #7 align 2 {
entry:
  %this.addr = alloca ptr, align 8
  %x.addr = alloca double, align 8
  store ptr %this, ptr %this.addr, align 8, !tbaa !3
  store double %x, ptr %x.addr, align 8, !tbaa !56
  %this1 = load ptr, ptr %this.addr, align 8
  %0 = getelementptr inbounds nuw %class.anon.29, ptr %this1, i32 0, i32 0
  %1 = load ptr, ptr %0, align 8, !tbaa !44
  %2 = load double, ptr %x.addr, align 8, !tbaa !56
  %call = call noundef double @_ZNK8QuantLib19FdmVPPStepCondition12evolveAtPMaxEd(ptr noundef nonnull align 8 dereferenceable(160) %1, double noundef %2)
  ret double %call
}

; Function Attrs: mustprogress nounwind uwtable
define linkonce_odr noundef ptr @_ZNKSt9_Any_data9_M_accessEv(ptr noundef nonnull align 8 dereferenceable(16) %this) #5 comdat align 2 {
entry:
  %this.addr = alloca ptr, align 8
  store ptr %this, ptr %this.addr, align 8, !tbaa !3
  %this1 = load ptr, ptr %this.addr, align 8
  %arrayidx = getelementptr inbounds [16 x i8], ptr %this1, i64 0, i64 0
  ret ptr %arrayidx
}

; Function Attrs: mustprogress uwtable
define internal noundef double @"_ZSt13__invoke_implIdRZN8QuantLib19FdmVPPStepConditionC1ERKNS0_25FdmVPPStepConditionParamsEmRKNS0_25FdmVPPStepConditionMesherEN5boost10shared_ptrINS0_23FdmInnerValueCalculatorEEESB_E3$_1JdEET_St14__invoke_otherOT0_DpOT1_"(ptr noundef nonnull align 8 dereferenceable(8) %__f, ptr noundef nonnull align 8 dereferenceable(8) %__args) #3 {
entry:
  %__f.addr = alloca ptr, align 8
  %__args.addr = alloca ptr, align 8
  store ptr %__f, ptr %__f.addr, align 8, !tbaa !3
  store ptr %__args, ptr %__args.addr, align 8, !tbaa !3
  %0 = load ptr, ptr %__f.addr, align 8, !tbaa !3
  %1 = load ptr, ptr %__args.addr, align 8, !tbaa !3
  %2 = load double, ptr %1, align 8, !tbaa !56
  %call = call noundef double @"_ZZN8QuantLib19FdmVPPStepConditionC1ERKNS_25FdmVPPStepConditionParamsEmRKNS_25FdmVPPStepConditionMesherEN5boost10shared_ptrINS_23FdmInnerValueCalculatorEEESA_ENK3$_1clEd"(ptr noundef nonnull align 8 dereferenceable(8) %0, double noundef %2)
  ret double %call
}

; Function Attrs: mustprogress nounwind uwtable
define internal noundef nonnull align 8 dereferenceable(8) ptr @"_ZNKSt9_Any_data9_M_accessIZN8QuantLib19FdmVPPStepConditionC1ERKNS1_25FdmVPPStepConditionParamsEmRKNS1_25FdmVPPStepConditionMesherEN5boost10shared_ptrINS1_23FdmInnerValueCalculatorEEESC_E3$_1EERKT_v"(ptr noundef nonnull align 8 dereferenceable(16) %this) #5 align 2 {
entry:
  %this.addr = alloca ptr, align 8
  store ptr %this, ptr %this.addr, align 8, !tbaa !3
  %this1 = load ptr, ptr %this.addr, align 8
  %call = call noundef ptr @_ZNKSt9_Any_data9_M_accessEv(ptr noundef nonnull align 8 dereferenceable(16) %this1) #17
  ret ptr %call
}

; Function Attrs: mustprogress uwtable
define internal noundef double @"_ZSt10__invoke_rIdRZN8QuantLib19FdmVPPStepConditionC1ERKNS0_25FdmVPPStepConditionParamsEmRKNS0_25FdmVPPStepConditionMesherEN5boost10shared_ptrINS0_23FdmInnerValueCalculatorEEESB_E3$_1JdEENSt9enable_ifIX16is_invocable_r_vIT_T0_DpT1_EESF_E4typeEOSG_DpOSH_"(ptr noundef nonnull align 8 dereferenceable(8) %__fn, ptr noundef nonnull align 8 dereferenceable(8) %__args) #3 {
entry:
  %__fn.addr = alloca ptr, align 8
  %__args.addr = alloca ptr, align 8
  store ptr %__fn, ptr %__fn.addr, align 8, !tbaa !3
  store ptr %__args, ptr %__args.addr, align 8, !tbaa !3
  %0 = load ptr, ptr %__fn.addr, align 8, !tbaa !3
  %1 = load ptr, ptr %__args.addr, align 8, !tbaa !3
  %call = call noundef double @"_ZSt13__invoke_implIdRZN8QuantLib19FdmVPPStepConditionC1ERKNS0_25FdmVPPStepConditionParamsEmRKNS0_25FdmVPPStepConditionMesherEN5boost10shared_ptrINS0_23FdmInnerValueCalculatorEEESB_E3$_1JdEET_St14__invoke_otherOT0_DpOT1_"(ptr noundef nonnull align 8 dereferenceable(8) %0, ptr noundef nonnull align 8 dereferenceable(8) %1)
  ret double %call
}

; Function Attrs: mustprogress nounwind uwtable
define internal noundef ptr @"_ZNSt14_Function_base13_Base_managerIZN8QuantLib19FdmVPPStepConditionC1ERKNS1_25FdmVPPStepConditionParamsEmRKNS1_25FdmVPPStepConditionMesherEN5boost10shared_ptrINS1_23FdmInnerValueCalculatorEEESC_E3$_1E14_M_get_pointerERKSt9_Any_data"(ptr noundef nonnull align 8 dereferenceable(16) %__source) #5 align 2 {
entry:
  %__source.addr = alloca ptr, align 8
  %__f = alloca ptr, align 8
  store ptr %__source, ptr %__source.addr, align 8, !tbaa !3
  call void @llvm.lifetime.start.p0(i64 8, ptr %__f) #17
  %0 = load ptr, ptr %__source.addr, align 8, !tbaa !3
  %call = call noundef nonnull align 8 dereferenceable(8) ptr @"_ZNKSt9_Any_data9_M_accessIZN8QuantLib19FdmVPPStepConditionC1ERKNS1_25FdmVPPStepConditionParamsEmRKNS1_25FdmVPPStepConditionMesherEN5boost10shared_ptrINS1_23FdmInnerValueCalculatorEEESC_E3$_1EERKT_v"(ptr noundef nonnull align 8 dereferenceable(16) %0) #17
  store ptr %call, ptr %__f, align 8, !tbaa !3
  %1 = load ptr, ptr %__f, align 8, !tbaa !3
  call void @llvm.lifetime.end.p0(i64 8, ptr %__f) #17
  ret ptr %1
}

; Function Attrs: mustprogress uwtable
define internal noundef double @"_ZNSt17_Function_handlerIFddEZN8QuantLib19FdmVPPStepConditionC1ERKNS1_25FdmVPPStepConditionParamsEmRKNS1_25FdmVPPStepConditionMesherEN5boost10shared_ptrINS1_23FdmInnerValueCalculatorEEESC_E3$_1E9_M_invokeERKSt9_Any_dataOd"(ptr noundef nonnull align 8 dereferenceable(16) %__functor, ptr noundef nonnull align 8 dereferenceable(8) %__args) #3 align 2 {
entry:
  %__functor.addr = alloca ptr, align 8
  %__args.addr = alloca ptr, align 8
  store ptr %__functor, ptr %__functor.addr, align 8, !tbaa !3
  store ptr %__args, ptr %__args.addr, align 8, !tbaa !3
  %0 = load ptr, ptr %__functor.addr, align 8, !tbaa !3
  %call = call noundef ptr @"_ZNSt14_Function_base13_Base_managerIZN8QuantLib19FdmVPPStepConditionC1ERKNS1_25FdmVPPStepConditionParamsEmRKNS1_25FdmVPPStepConditionMesherEN5boost10shared_ptrINS1_23FdmInnerValueCalculatorEEESC_E3$_1E14_M_get_pointerERKSt9_Any_data"(ptr noundef nonnull align 8 dereferenceable(16) %0) #17
  %1 = load ptr, ptr %__args.addr, align 8, !tbaa !3
  %call1 = call noundef double @"_ZSt10__invoke_rIdRZN8QuantLib19FdmVPPStepConditionC1ERKNS0_25FdmVPPStepConditionParamsEmRKNS0_25FdmVPPStepConditionMesherEN5boost10shared_ptrINS0_23FdmInnerValueCalculatorEEESB_E3$_1JdEENSt9enable_ifIX16is_invocable_r_vIT_T0_DpT1_EESF_E4typeEOSG_DpOSH_"(ptr noundef nonnull align 8 dereferenceable(8) %call, ptr noundef nonnull align 8 dereferenceable(8) %1)
  ret double %call1
}