; Function Attrs: mustprogress nofree norecurse nosync nounwind willreturn memory(read, inaccessiblemem: none) uwtable
define internal noundef double @"_ZNSt17_Function_handlerIFddEZN8QuantLib19FdmVPPStepConditionC1ERKNS1_25FdmVPPStepConditionParamsEmRKNS1_25FdmVPPStepConditionMesherEN5boost10shared_ptrINS1_23FdmInnerValueCalculatorEEESC_E3$_1E9_M_invokeERKSt9_Any_dataOd"(ptr nocapture noundef nonnull readonly align 8 dereferenceable(16) %__functor, ptr nocapture noundef nonnull readonly align 8 dereferenceable(8) %__args) #18 align 2 {
entry:
  %call.val = load ptr, ptr %__functor, align 8, !tbaa !103
  %__args.val = load double, ptr %__args, align 8, !tbaa !87
  %pMax_.i.i.i.i = getelementptr inbounds nuw i8, ptr %call.val, i64 24
  %0 = load double, ptr %pMax_.i.i.i.i, align 8, !tbaa !33
  %heatRate_.i.i.i.i = getelementptr inbounds nuw i8, ptr %call.val, i64 8
  %1 = load double, ptr %heatRate_.i.i.i.i, align 8, !tbaa !21
  %fuelCostAddon_.i.i.i.i = getelementptr inbounds nuw i8, ptr %call.val, i64 64
  %2 = load double, ptr %fuelCostAddon_.i.i.i.i, align 8, !tbaa !43
  %neg.i.i.i.i = fneg double %1
  %3 = tail call double @llvm.fmuladd.f64(double %neg.i.i.i.i, double %2, double %__args.val)
  %mul.i.i.i.i = fmul double %0, %3
  ret double %mul.i.i.i.i
}